(imidca.worldsim.worldsim
World
p0
(dp1
S'cltree'
p2
(lp3
sS'obtree'
p4
(lp5
sS'operators'
p6
(dp7
S'fast_survey'
p8
(imidca.worldsim.worldsim
Operator
p9
(dp10
S'name'
p11
g8
sS'postPos'
p12
(lp13
I01
asS'results'
p14
(dp15
(imidca.worldsim.worldsim
Condition
p16
(dp17
S'argtypes'
p18
(lp19
(imidca.worldsim.worldsim
Type
p20
(dp21
S'parents'
p22
(lp23
(imidca.worldsim.worldsim
Type
p24
(dp25
g22
(lp26
sg11
S'obj'
p27
sbasg11
S'UUV'
p28
sba(imidca.worldsim.worldsim
Type
p29
(dp30
g22
(lp31
g24
asg11
S'SEA_ROUTE'
p32
sbasS'atom'
p33
(imidca.worldsim.worldsim
Atom
p34
(dp35
S'predicate'
p36
(imidca.worldsim.worldsim
Predicate
p37
(dp38
S'argnames'
p39
(lp40
S'uuv'
p41
aS'location'
p42
asg11
S'at_location'
p43
sg18
(lp44
g20
ag29
asbsS'args'
p45
(lp46
(imidca.worldsim.worldsim
Obj
p47
(dp48
S'type'
p49
g20
sg11
g41
sba(imidca.worldsim.worldsim
Obj
p50
(dp51
g49
g29
sg11
g42
sbasS'hash'
p52
I-1091703935225775666
sbsb(lp53
g41
ag42
assS'objnames'
p54
(lp55
S'uuv'
p56
aS'location'
p57
asS'resultorder'
p58
(lp59
g16
asS'preconditions'
p60
(dp61
(imidca.worldsim.worldsim
Condition
p62
(dp63
g18
(lp64
g20
asg33
(imidca.worldsim.worldsim
Atom
p65
(dp66
g36
(imidca.worldsim.worldsim
Predicate
p67
(dp68
g39
(lp69
g41
asg11
S'enabled'
p70
sg18
(lp71
g20
asbsg45
(lp72
(imidca.worldsim.worldsim
Obj
p73
(dp74
g49
g20
sg11
g41
sbasg52
I7981495655569441697
sbsb(lp75
g41
as(imidca.worldsim.worldsim
Condition
p76
(dp77
g18
(lp78
g20
ag29
asg33
(imidca.worldsim.worldsim
Atom
p79
(dp80
g36
g37
sg45
(lp81
(imidca.worldsim.worldsim
Obj
p82
(dp83
g49
g20
sg11
g41
sba(imidca.worldsim.worldsim
Obj
p84
(dp85
g49
g29
sg11
g42
sbasg52
I-1091703935225775666
sbsb(lp86
g41
ag42
assS'precondorder'
p87
(lp88
g62
ag76
asS'prePos'
p89
(lp90
I01
aI00
asbsS'avoid'
p91
(imidca.worldsim.worldsim
Operator
p92
(dp93
g11
g91
sg12
(lp94
I01
aI00
asg14
(dp95
(imidca.worldsim.worldsim
Condition
p96
(dp97
g18
(lp98
(imidca.worldsim.worldsim
Type
p99
(dp100
g22
(lp101
g24
asg11
S'HAZARD'
p102
sbasg33
(imidca.worldsim.worldsim
Atom
p103
(dp104
g36
(imidca.worldsim.worldsim
Predicate
p105
(dp106
g39
(lp107
S'mine'
p108
asg11
S'hazard_at_pathway'
p109
sg18
(lp110
g99
asbsg45
(lp111
(imidca.worldsim.worldsim
Obj
p112
(dp113
g49
g99
sg11
g108
sbasg52
I1820044184504913437
sbsb(lp114
g108
as(imidca.worldsim.worldsim
Condition
p115
(dp116
g18
(lp117
g99
ag29
asg33
(imidca.worldsim.worldsim
Atom
p118
(dp119
g36
(imidca.worldsim.worldsim
Predicate
p120
(dp121
g39
(lp122
g108
ag42
asg11
S'hazard_checked'
p123
sg18
(lp124
g99
ag29
asbsg45
(lp125
(imidca.worldsim.worldsim
Obj
p126
(dp127
g49
g99
sg11
g108
sba(imidca.worldsim.worldsim
Obj
p128
(dp129
g49
g29
sg11
g42
sbasg52
I7116554433439852372
sbsb(lp130
g108
ag42
assg54
(lp131
S'mine'
p132
ag57
ag56
asg58
(lp133
g115
ag96
asg60
(dp134
(imidca.worldsim.worldsim
Condition
p135
(dp136
g18
(lp137
g99
ag29
asg33
(imidca.worldsim.worldsim
Atom
p138
(dp139
g36
(imidca.worldsim.worldsim
Predicate
p140
(dp141
g39
(lp142
g108
ag42
asg11
S'hazard_at_location'
p143
sg18
(lp144
g99
ag29
asbsg45
(lp145
(imidca.worldsim.worldsim
Obj
p146
(dp147
g49
g99
sg11
g108
sba(imidca.worldsim.worldsim
Obj
p148
(dp149
g49
g29
sg11
g42
sbasg52
I-6052635557291901376
sbsb(lp150
g108
ag42
as(imidca.worldsim.worldsim
Condition
p151
(dp152
g18
(lp153
g99
asg33
(imidca.worldsim.worldsim
Atom
p154
(dp155
g36
g105
sg45
(lp156
(imidca.worldsim.worldsim
Obj
p157
(dp158
g49
g99
sg11
g108
sbasg52
I1820044184504913437
sbsb(lp159
g108
as(imidca.worldsim.worldsim
Condition
p160
(dp161
g18
(lp162
g20
asg33
(imidca.worldsim.worldsim
Atom
p163
(dp164
g36
g67
sg45
(lp165
(imidca.worldsim.worldsim
Obj
p166
(dp167
g49
g20
sg11
g41
sbasg52
I7981495655569441697
sbsb(lp168
g41
assg87
(lp169
g160
ag135
ag151
asg89
(lp170
I01
aI01
aI01
asbsS'remove'
p171
(imidca.worldsim.worldsim
Operator
p172
(dp173
g11
g171
sg12
(lp174
I01
aI00
asg14
(dp175
(imidca.worldsim.worldsim
Condition
p176
(dp177
g18
(lp178
g99
ag29
asg33
(imidca.worldsim.worldsim
Atom
p179
(dp180
g36
g140
sg45
(lp181
(imidca.worldsim.worldsim
Obj
p182
(dp183
g49
g99
sg11
g108
sba(imidca.worldsim.worldsim
Obj
p184
(dp185
g49
g29
sg11
g42
sbasg52
I-6052635557291901376
sbsb(lp186
g108
ag42
as(imidca.worldsim.worldsim
Condition
p187
(dp188
g18
(lp189
g99
ag29
asg33
(imidca.worldsim.worldsim
Atom
p190
(dp191
g36
g120
sg45
(lp192
(imidca.worldsim.worldsim
Obj
p193
(dp194
g49
g99
sg11
g108
sba(imidca.worldsim.worldsim
Obj
p195
(dp196
g49
g29
sg11
g42
sbasg52
I7116554433439852372
sbsb(lp197
g108
ag42
assg54
(lp198
g132
ag57
ag56
asg58
(lp199
g187
ag176
asg60
(dp200
(imidca.worldsim.worldsim
Condition
p201
(dp202
g18
(lp203
g99
ag29
asg33
(imidca.worldsim.worldsim
Atom
p204
(dp205
g36
g140
sg45
(lp206
(imidca.worldsim.worldsim
Obj
p207
(dp208
g49
g99
sg11
g108
sba(imidca.worldsim.worldsim
Obj
p209
(dp210
g49
g29
sg11
g42
sbasg52
I-6052635557291901376
sbsb(lp211
g108
ag42
as(imidca.worldsim.worldsim
Condition
p212
(dp213
g18
(lp214
g20
asg33
(imidca.worldsim.worldsim
Atom
p215
(dp216
g36
g67
sg45
(lp217
(imidca.worldsim.worldsim
Obj
p218
(dp219
g49
g20
sg11
g41
sbasg52
I7981495655569441697
sbsb(lp220
g41
assg87
(lp221
g212
ag201
asg89
(lp222
I01
aI01
asbsS'ignore'
p223
(imidca.worldsim.worldsim
Operator
p224
(dp225
g11
g223
sg12
(lp226
I01
asg14
(dp227
(imidca.worldsim.worldsim
Condition
p228
(dp229
g18
(lp230
g99
ag29
asg33
(imidca.worldsim.worldsim
Atom
p231
(dp232
g36
g120
sg45
(lp233
(imidca.worldsim.worldsim
Obj
p234
(dp235
g49
g99
sg11
g108
sba(imidca.worldsim.worldsim
Obj
p236
(dp237
g49
g29
sg11
g42
sbasg52
I7116554433439852372
sbsb(lp238
g108
ag42
assg54
(lp239
g132
ag57
ag56
asg58
(lp240
g228
asg60
(dp241
(imidca.worldsim.worldsim
Condition
p242
(dp243
g18
(lp244
g99
ag29
asg33
(imidca.worldsim.worldsim
Atom
p245
(dp246
g36
g140
sg45
(lp247
(imidca.worldsim.worldsim
Obj
p248
(dp249
g49
g99
sg11
g108
sba(imidca.worldsim.worldsim
Obj
p250
(dp251
g49
g29
sg11
g42
sbasg52
I-6052635557291901376
sbsb(lp252
g108
ag42
as(imidca.worldsim.worldsim
Condition
p253
(dp254
g18
(lp255
g20
asg33
(imidca.worldsim.worldsim
Atom
p256
(dp257
g36
g67
sg45
(lp258
(imidca.worldsim.worldsim
Obj
p259
(dp260
g49
g20
sg11
g41
sbasg52
I7981495655569441697
sbsb(lp261
g41
assg87
(lp262
g253
ag242
asg89
(lp263
I01
aI01
asbsS'slow_survey'
p264
(imidca.worldsim.worldsim
Operator
p265
(dp266
g11
g264
sg12
(lp267
I01
asg14
(dp268
(imidca.worldsim.worldsim
Condition
p269
(dp270
g18
(lp271
g20
ag29
asg33
(imidca.worldsim.worldsim
Atom
p272
(dp273
g36
g37
sg45
(lp274
(imidca.worldsim.worldsim
Obj
p275
(dp276
g49
g20
sg11
g41
sba(imidca.worldsim.worldsim
Obj
p277
(dp278
g49
g29
sg11
g42
sbasg52
I-1091703935225775666
sbsb(lp279
g41
ag42
assg54
(lp280
g56
ag57
asg58
(lp281
g269
asg60
(dp282
(imidca.worldsim.worldsim
Condition
p283
(dp284
g18
(lp285
g20
ag29
asg33
(imidca.worldsim.worldsim
Atom
p286
(dp287
g36
g37
sg45
(lp288
(imidca.worldsim.worldsim
Obj
p289
(dp290
g49
g20
sg11
g41
sba(imidca.worldsim.worldsim
Obj
p291
(dp292
g49
g29
sg11
g42
sbasg52
I-1091703935225775666
sbsb(lp293
g41
ag42
as(imidca.worldsim.worldsim
Condition
p294
(dp295
g18
(lp296
g20
asg33
(imidca.worldsim.worldsim
Atom
p297
(dp298
g36
g67
sg45
(lp299
(imidca.worldsim.worldsim
Obj
p300
(dp301
g49
g20
sg11
g41
sbasg52
I7981495655569441697
sbsb(lp302
g41
assg87
(lp303
g294
ag283
asg89
(lp304
I01
aI00
asbsS'remove_mines'
p305
(imidca.worldsim.worldsim
Operator
p306
(dp307
g11
g305
sg12
(lp308
I01
asg14
(dp309
(imidca.worldsim.worldsim
Condition
p310
(dp311
g18
(lp312
g20
ag29
asg33
(imidca.worldsim.worldsim
Atom
p313
(dp314
g36
(imidca.worldsim.worldsim
Predicate
p315
(dp316
g39
(lp317
g41
ag42
asg11
S'cleared_mines'
p318
sg18
(lp319
g20
ag29
asbsg45
(lp320
(imidca.worldsim.worldsim
Obj
p321
(dp322
g49
g20
sg11
g41
sba(imidca.worldsim.worldsim
Obj
p323
(dp324
g49
g29
sg11
g42
sbasg52
I1860740171393797494
sbsb(lp325
g41
ag42
assg54
(lp326
g56
ag57
asg58
(lp327
g310
asg60
(dp328
(imidca.worldsim.worldsim
Condition
p329
(dp330
g18
(lp331
g20
ag29
asg33
(imidca.worldsim.worldsim
Atom
p332
(dp333
g36
g37
sg45
(lp334
(imidca.worldsim.worldsim
Obj
p335
(dp336
g49
g20
sg11
g41
sba(imidca.worldsim.worldsim
Obj
p337
(dp338
g49
g29
sg11
g42
sbasg52
I-1091703935225775666
sbsb(lp339
g41
ag42
as(imidca.worldsim.worldsim
Condition
p340
(dp341
g18
(lp342
g20
asg33
(imidca.worldsim.worldsim
Atom
p343
(dp344
g36
g67
sg45
(lp345
(imidca.worldsim.worldsim
Obj
p346
(dp347
g49
g20
sg11
g41
sbasg52
I7981495655569441697
sbsb(lp348
g41
assg87
(lp349
g340
ag329
asg89
(lp350
I01
aI01
asbssS'atoms'
p351
c__builtin__
set
p352
((lp353
(imidca.worldsim.worldsim
Atom
p354
(dp355
g36
g140
sg45
(lp356
(imidca.worldsim.worldsim
Obj
p357
(dp358
g49
g99
sg11
S'mine34'
p359
sba(imidca.worldsim.worldsim
Obj
p360
(dp361
g49
g29
sg11
S'transit'
p362
sbasg52
I9167608458400893284
sba(imidca.worldsim.worldsim
Atom
p363
(dp364
g36
g140
sg45
(lp365
(imidca.worldsim.worldsim
Obj
p366
(dp367
g49
g99
sg11
S'mine36'
p368
sbag360
asg52
I-1785537502468484506
sba(imidca.worldsim.worldsim
Atom
p369
(dp370
g36
g67
sg45
(lp371
(imidca.worldsim.worldsim
Obj
p372
(dp373
g49
g20
sg11
S'remus'
p374
sbasg52
I-4269376196616621209
sba(imidca.worldsim.worldsim
Atom
p375
(dp376
g36
g120
sg45
(lp377
(imidca.worldsim.worldsim
Obj
p378
(dp379
g49
g99
sg11
S'mine35'
p380
sbag360
asg52
I4367539147645767115
sba(imidca.worldsim.worldsim
Atom
p381
(dp382
g36
g105
sg45
(lp383
g366
asg52
I-241925216823429364
sba(imidca.worldsim.worldsim
Atom
p384
(dp385
g36
g120
sg45
(lp386
g357
ag360
asg52
I-3658838229215515664
sba(imidca.worldsim.worldsim
Atom
p387
(dp388
g36
g120
sg45
(lp389
g366
ag360
asg52
I4839215555137613298
sba(imidca.worldsim.worldsim
Atom
p390
(dp391
g36
g105
sg45
(lp392
g378
asg52
I-241928216839429261
sba(imidca.worldsim.worldsim
Atom
p393
(dp394
g36
g140
sg45
(lp395
g378
ag360
asg52
I4724138146683989823
sbatp396
Rp397
sS'objects'
p398
(dp399
S'way_point'
p400
(imidca.worldsim.worldsim
Obj
p401
(dp402
g49
g29
sg11
g400
sbsg368
g366
sg359
g357
sg380
g378
sg374
g372
sS'ga1'
p403
(imidca.worldsim.worldsim
Obj
p404
(dp405
g49
g29
sg11
g403
sbsS'ga2'
p406
(imidca.worldsim.worldsim
Obj
p407
(dp408
g49
g29
sg11
g406
sbsS'qroute'
p409
(imidca.worldsim.worldsim
Obj
p410
(dp411
g49
g29
sg11
g409
sbsS'home'
p412
(imidca.worldsim.worldsim
Obj
p413
(dp414
g49
g29
sg11
g412
sbsS'qroute_transit'
p415
(imidca.worldsim.worldsim
Obj
p416
(dp417
g49
g29
sg11
g415
sbsS'transit2'
p418
(imidca.worldsim.worldsim
Obj
p419
(dp420
g49
g29
sg11
g418
sbsg362
g360
sS'transit1'
p421
(imidca.worldsim.worldsim
Obj
p422
(dp423
g49
g29
sg11
g421
sbssS'predicates'
p424
(dp425
g318
g315
sg70
g67
sg43
g37
sg109
g105
sg143
g140
sg123
g120
ssS'types'
p426
(dp427
g28
g20
sg27
g24
sg32
g29
sg102
g99
ssb.