(ioption.options
OptionSet
p1
(dp2
S'customOptions'
p3
(dp4
S'ADist-window-size'
p5
(ioption.options
Option
p6
(dp7
S'name'
p8
g5
sS'res'
p9
I10
sS'answered'
p10
I00
sS'dependsOn'
p11
S'is-ADist'
p12
sS'queryText'
p13
S'A-distance window size?'
p14
sS'queryType'
p15
S'num'
p16
sbsg12
(ioption.options
Option
p17
(dp18
g8
g12
sg9
I01
sg10
I00
sg11
Nsg13
S'Track A-Distance in note phase?'
p19
sg15
S'bool'
p20
sbsS'random-fires-start'
p21
(ioption.options
Option
p22
(dp23
g8
g21
sg9
I10
sg10
I00
sg11
S'random-fires'
p24
sg13
S'At what time step do random fires start occuring?'
p25
sg15
g16
sbsS'arsonist'
p26
(ioption.options
Option
p27
(dp28
g8
g26
sg9
I01
sg10
I00
sg11
Nsg13
S'Is there an arsonist?'
p29
sg15
g20
sbsS'TF-Fire'
p30
(ioption.options
Option
p31
(dp32
g8
g30
sg9
I01
sg10
I00
sg11
Nsg13
S'Use TF-Trees to generate fire removal goals?'
p33
sg15
g20
sbsS'arsonist-long-apprehend'
p34
(ioption.options
Option
p35
(dp36
g8
g34
sg9
I00
sg10
I00
sg11
g26
sg13
S'Will the arsonist take multiple steps to capture?'
p37
sg15
g20
sbsS'MA-arson'
p38
(ioption.options
Option
p39
(dp40
g8
g38
sg9
I01
sg10
I00
sg11
Nsg13
S'Use Meta-AQUA to generate arsonist catching goals?'
p41
sg15
g20
sbsS'arsonist-chance'
p42
(ioption.options
Option
p43
(dp44
g8
g42
sg9
F0.5
sg10
I00
sg11
g26
sg13
S'What is the chance that the arsonist will set a fire at each time step after he is activated?'
p45
sg15
g16
sbsS'arsonist-start'
p46
(ioption.options
Option
p47
(dp48
g8
g46
sg9
I10
sg10
I00
sg11
g26
sg13
S'At what time step does the arsonist start setting fires?'
p49
sg15
g16
sbsS'GNG'
p50
(ioption.options
Option
p51
(dp52
g8
g50
sg9
I00
sg10
I00
sg11
g12
sg13
S'Run GNG on ADist results?'
p53
sg15
g20
sbsS'ADist-threshold'
p54
(ioption.options
Option
p55
(dp56
g8
g54
sg9
F0.29999999999999999
sg10
I00
sg11
g12
sg13
S'A-distance threshold/epsilon?'
p57
sg15
g16
sbsS'TF-base'
p58
(ioption.options
Option
p59
(dp60
g8
g58
sg9
I01
sg10
I00
sg11
Nsg13
S'Use TF-Trees to generate block stacking goals?'
p61
sg15
g20
sbsg24
(ioption.options
Option
p62
(dp63
g8
g24
sg9
I00
sg10
I00
sg11
Nsg13
S'Will random fires occur'
p64
sg15
g20
sbsS'random-fires-chance'
p65
(ioption.options
Option
p66
(dp67
g8
g65
sg9
F0.20000000000000001
sg10
I00
sg11
g24
sg13
S'What is the chance that random-fires will occur at each time step after they are activated?'
p68
sg15
g16
sbssS'staticOptions'
p69
(dp70
S'restart-fires'
p71
(ioption.options
Option
p72
(dp73
g8
g71
sg9
I01
sg10
I01
sg11
Nsg13
S'Put out fires when a tower is completed?'
p74
sg15
g20
sbssb.